target datalayout = "e-m:e-p270:32:32-p271:32:32-p272:64:64-i64:64-i128:128-f80:128-n8:16:32:64-S128"
target triple = "x86_64-pc-linux-gnu"

; Function Attrs: nounwind uwtable
define internal i32 @i_compareitems(ptr noundef %0, ptr noundef %1, i64 noundef %2) #0 {
  %4 = alloca i32, align 4
  %5 = alloca ptr, align 8
  %6 = alloca ptr, align 8
  %7 = alloca i64, align 8
  %8 = alloca ptr, align 8
  %9 = alloca ptr, align 8
  %10 = alloca i64, align 8
  %11 = alloca i32, align 4
  store ptr %0, ptr %5, align 8, !tbaa !8
  store ptr %1, ptr %6, align 8, !tbaa !8
  store i64 %2, ptr %7, align 8, !tbaa !21
  call void @llvm.lifetime.start.p0(i64 8, ptr %8) #8
  %12 = load ptr, ptr %5, align 8, !tbaa !8
  store ptr %12, ptr %8, align 8, !tbaa !74
  call void @llvm.lifetime.start.p0(i64 8, ptr %9) #8
  %13 = load ptr, ptr %6, align 8, !tbaa !8
  store ptr %13, ptr %9, align 8, !tbaa !74
  call void @llvm.lifetime.start.p0(i64 8, ptr %10) #8
  store i64 0, ptr %10, align 8, !tbaa !21
  br label %14

14:                                               ; preds = %41, %3
  %15 = load i64, ptr %10, align 8, !tbaa !21
  %16 = load i64, ptr %7, align 8, !tbaa !21
  %17 = icmp slt i64 %15, %16
  br i1 %17, label %19, label %18

18:                                               ; preds = %14
  store i32 2, ptr %11, align 4
  br label %44

19:                                               ; preds = %14
  %20 = load ptr, ptr %8, align 8, !tbaa !74
  %21 = load i64, ptr %10, align 8, !tbaa !21
  %22 = getelementptr i32, ptr %20, i64 %21
  %23 = load i32, ptr %22, align 4, !tbaa !12
  %24 = load ptr, ptr %9, align 8, !tbaa !74
  %25 = load i64, ptr %10, align 8, !tbaa !21
  %26 = getelementptr i32, ptr %24, i64 %25
  %27 = load i32, ptr %26, align 4, !tbaa !12
  %28 = icmp ne i32 %23, %27
  br i1 %28, label %29, label %40

29:                                               ; preds = %19
  %30 = load ptr, ptr %8, align 8, !tbaa !74
  %31 = load i64, ptr %10, align 8, !tbaa !21
  %32 = getelementptr i32, ptr %30, i64 %31
  %33 = load i32, ptr %32, align 4, !tbaa !12
  %34 = load ptr, ptr %9, align 8, !tbaa !74
  %35 = load i64, ptr %10, align 8, !tbaa !21
  %36 = getelementptr i32, ptr %34, i64 %35
  %37 = load i32, ptr %36, align 4, !tbaa !12
  %38 = icmp slt i32 %33, %37
  %39 = select i1 %38, i32 -1, i32 1
  store i32 %39, ptr %4, align 4
  store i32 1, ptr %11, align 4
  br label %44

40:                                               ; preds = %19
  br label %41

41:                                               ; preds = %40
  %42 = load i64, ptr %10, align 8, !tbaa !21
  %43 = add i64 %42, 1
  store i64 %43, ptr %10, align 8, !tbaa !21
  br label %14, !llvm.loop !82

44:                                               ; preds = %29, %18
  call void @llvm.lifetime.end.p0(i64 8, ptr %10) #8
  %45 = load i32, ptr %11, align 4
  switch i32 %45, label %47 [
    i32 2, label %46
  ]

46:                                               ; preds = %44
  store i32 0, ptr %4, align 4
  store i32 1, ptr %11, align 4
  br label %47

47:                                               ; preds = %46, %44
  call void @llvm.lifetime.end.p0(i64 8, ptr %9) #8
  call void @llvm.lifetime.end.p0(i64 8, ptr %8) #8
  %48 = load i32, ptr %4, align 4
  ret i32 %48
}